; Function Attrs: nounwind uwtable
define range(i32 -1, 1) i32 @H5FD_write_vector_from_selection(ptr noundef %0, i32 noundef %1, i32 noundef %2, ptr noundef %3, ptr noundef %4, ptr noundef %5, ptr noundef %6, ptr noundef %7) local_unnamed_addr #0 {
  %9 = load i8, ptr @H5FD_init_g, align 1, !tbaa !3, !range !7, !noundef !8
  %10 = trunc nuw i8 %9 to i1
  %11 = load i8, ptr @H5_libterm_g, align 1, !range !7
  %12 = trunc nuw i8 %11 to i1
  %13 = select i1 %10, i1 true, i1 %12
  br i1 %13, label %21, label %14, !prof !9

14:                                               ; preds = %8
  store i8 1, ptr @H5FD_init_g, align 1, !tbaa !3
  %15 = tail call i32 @H5FD__init_package() #12
  %16 = icmp slt i32 %15, 0
  br i1 %16, label %17, label %._crit_edge

._crit_edge:                                      ; preds = %14
  %.pre = load i8, ptr @H5FD_init_g, align 1, !tbaa !3, !range !7
  %.pre10 = load i8, ptr @H5_libterm_g, align 1, !range !7
  %.pre11 = trunc nuw i8 %.pre to i1
  %.pre12 = trunc nuw i8 %.pre10 to i1
  br label %21

17:                                               ; preds = %14
  store i8 0, ptr @H5FD_init_g, align 1, !tbaa !3
  %18 = load i64, ptr @H5E_FUNC_g, align 8, !tbaa !10
  %19 = load i64, ptr @H5E_CANTINIT_g, align 8, !tbaa !10
  %20 = tail call i32 (ptr, ptr, i32, i64, i64, ptr, ...) @H5E_printf_stack(ptr noundef nonnull @.str, ptr noundef nonnull @__func__.H5FD_write_vector_from_selection, i32 noundef 2265, i64 noundef %18, i64 noundef %19, ptr noundef nonnull @.str.6) #12
  br label %31

21:                                               ; preds = %._crit_edge, %8
  %.pre-phi13 = phi i1 [ %.pre12, %._crit_edge ], [ %12, %8 ]
  %.pre-phi = phi i1 [ %.pre11, %._crit_edge ], [ %10, %8 ]
  %22 = xor i1 %.pre-phi13, true
  %23 = select i1 %.pre-phi, i1 true, i1 %22
  br i1 %23, label %24, label %31, !prof !9

24:                                               ; preds = %21
  %25 = tail call i32 @H5FD_write_selection_id(i32 noundef 1, ptr noundef %0, i32 noundef %1, i32 noundef %2, ptr noundef %3, ptr noundef %4, ptr noundef %5, ptr noundef %6, ptr noundef %7)
  %26 = icmp slt i32 %25, 0
  br i1 %26, label %27, label %31

27:                                               ; preds = %24
  %28 = load i64, ptr @H5E_VFL_g, align 8, !tbaa !10
  %29 = load i64, ptr @H5E_WRITEERROR_g, align 8, !tbaa !10
  %30 = tail call i32 (ptr, ptr, i32, i64, i64, ptr, ...) @H5E_printf_stack(ptr noundef nonnull @.str, ptr noundef nonnull @__func__.H5FD_write_vector_from_selection, i32 noundef 2285, i64 noundef %28, i64 noundef %29, ptr noundef nonnull @.str.27) #12
  br label %31

31:                                               ; preds = %17, %27, %24, %21
  %.0 = phi i32 [ -1, %17 ], [ -1, %27 ], [ 0, %24 ], [ 0, %21 ]
  ret i32 %.0
}